--- !tapi-tbd-v2
archs:           [ x86_64, arm64, arm64e ]
uuids:           [ 'x86_64: DA25E02D-CA39-377C-AC62-AA0B9E3B449A', 'arm64: 00000000-0000-0000-0000-000000000000', 
                   'arm64e: E1F2FFAF-A4FA-391F-9BF1-B6DC16F7FAC7' ]
platform:        macosx
install-name:    '/System/Library/PrivateFrameworks/AudioResourceArbitration.framework/Versions/A/AudioResourceArbitration'
exports:
  - archs:           [ x86_64 ]
    weak-def-symbols: [ __ZTIN4aura11VirtualPortE, __ZTIN4aura12IOControllerE, __ZTIN4aura12LevelControlE, 
                        __ZTIN4aura13ClientProcessE, __ZTIN4aura13SliderControlE, 
                        __ZTIN4aura14BooleanControlE, __ZTIN4aura15SelectorControlE, 
                        __ZTIN4aura16StereoPanControlE, __ZTIN4aura18ResourceArbitratorE, 
                        __ZTIN4aura3BoxE, __ZTIN4aura4PortE, __ZTIN4aura5ClockE, 
                        __ZTIN4aura6DeviceE, __ZTIN4aura6DriverE, __ZTIN4aura6ObjectE, 
                        __ZTIN4aura6StreamE, __ZTIN4aura7ControlE, __ZTIN4aura8IOStreamE, 
                        __ZTINSt3__110__function6__baseIFvNS_6vectorIyNS_9allocatorIyEEEEEEE, 
                        __ZTINSt3__110__function6__baseIFvPK35aura_ConfigurationChangeDescriptionEEE, 
                        __ZTINSt3__110__function6__baseIFvjEEE, __ZTINSt3__110__function6__baseIFvvEEE, 
                        __ZTINSt3__112basic_stringIcNS_11char_traitsIcEENS_9allocatorIcEEEE, 
                        __ZTINSt3__113basic_filebufIcNS_11char_traitsIcEEEE, __ZTINSt3__114basic_ofstreamIcNS_11char_traitsIcEEEE, 
                        __ZTINSt3__115basic_stringbufIcNS_11char_traitsIcEENS_9allocatorIcEEEE, 
                        __ZTINSt3__117bad_function_callE, __ZTINSt3__119basic_ostringstreamIcNS_11char_traitsIcEENS_9allocatorIcEEEE, 
                        __ZTINSt3__120__vector_base_commonILb1EEE, __ZTINSt3__121__basic_string_commonILb1EEE, 
                        __ZTINSt3__15tupleIJjjEEE, __ZTINSt3__16vectorINS_12basic_stringIcNS_11char_traitsIcEENS_9allocatorIcEEEENS4_IS6_EEEE, 
                        __ZTINSt3__16vectorIaNS_9allocatorIaEEEE, __ZTINSt3__16vectorIbNS_9allocatorIbEEEE, 
                        __ZTINSt3__16vectorIcNS_9allocatorIcEEEE, __ZTINSt3__16vectorIdNS_9allocatorIdEEEE, 
                        __ZTINSt3__16vectorIeNS_9allocatorIeEEEE, __ZTINSt3__16vectorIfNS_9allocatorIfEEEE, 
                        __ZTINSt3__16vectorIhNS_9allocatorIhEEEE, __ZTINSt3__16vectorIiNS_9allocatorIiEEEE, 
                        __ZTINSt3__16vectorIjNS_9allocatorIjEEEE, __ZTINSt3__16vectorIlNS_9allocatorIlEEEE, 
                        __ZTINSt3__16vectorImNS_9allocatorImEEEE, __ZTINSt3__16vectorIsNS_9allocatorIsEEEE, 
                        __ZTINSt3__16vectorItNS_9allocatorItEEEE, __ZTINSt3__16vectorIxNS_9allocatorIxEEEE, 
                        __ZTINSt3__16vectorIyNS_9allocatorIyEEEE, __ZTSN4aura11VirtualPortE, 
                        __ZTSN4aura12IOControllerE, __ZTSN4aura12LevelControlE, __ZTSN4aura13ClientProcessE, 
                        __ZTSN4aura13SliderControlE, __ZTSN4aura14BooleanControlE, 
                        __ZTSN4aura15SelectorControlE, __ZTSN4aura16StereoPanControlE, 
                        __ZTSN4aura18ResourceArbitratorE, __ZTSN4aura3BoxE, __ZTSN4aura4PortE, 
                        __ZTSN4aura5ClockE, __ZTSN4aura6DeviceE, __ZTSN4aura6DriverE, 
                        __ZTSN4aura6ObjectE, __ZTSN4aura6StreamE, __ZTSN4aura7ControlE, 
                        __ZTSN4aura8IOStreamE, __ZTSNSt3__110__function6__baseIFvNS_6vectorIyNS_9allocatorIyEEEEEEE, 
                        __ZTSNSt3__110__function6__baseIFvPK35aura_ConfigurationChangeDescriptionEEE, 
                        __ZTSNSt3__110__function6__baseIFvjEEE, __ZTSNSt3__110__function6__baseIFvvEEE, 
                        __ZTSNSt3__112basic_stringIcNS_11char_traitsIcEENS_9allocatorIcEEEE, 
                        __ZTSNSt3__113basic_filebufIcNS_11char_traitsIcEEEE, __ZTSNSt3__114basic_ofstreamIcNS_11char_traitsIcEEEE, 
                        __ZTSNSt3__115basic_stringbufIcNS_11char_traitsIcEENS_9allocatorIcEEEE, 
                        __ZTSNSt3__117bad_function_callE, __ZTSNSt3__119basic_ostringstreamIcNS_11char_traitsIcEENS_9allocatorIcEEEE, 
                        __ZTSNSt3__120__vector_base_commonILb1EEE, __ZTSNSt3__121__basic_string_commonILb1EEE, 
                        __ZTSNSt3__15tupleIJjjEEE, __ZTSNSt3__16vectorINS_12basic_stringIcNS_11char_traitsIcEENS_9allocatorIcEEEENS4_IS6_EEEE, 
                        __ZTSNSt3__16vectorIaNS_9allocatorIaEEEE, __ZTSNSt3__16vectorIbNS_9allocatorIbEEEE, 
                        __ZTSNSt3__16vectorIcNS_9allocatorIcEEEE, __ZTSNSt3__16vectorIdNS_9allocatorIdEEEE, 
                        __ZTSNSt3__16vectorIeNS_9allocatorIeEEEE, __ZTSNSt3__16vectorIfNS_9allocatorIfEEEE, 
                        __ZTSNSt3__16vectorIhNS_9allocatorIhEEEE, __ZTSNSt3__16vectorIiNS_9allocatorIiEEEE, 
                        __ZTSNSt3__16vectorIjNS_9allocatorIjEEEE, __ZTSNSt3__16vectorIlNS_9allocatorIlEEEE, 
                        __ZTSNSt3__16vectorImNS_9allocatorImEEEE, __ZTSNSt3__16vectorIsNS_9allocatorIsEEEE, 
                        __ZTSNSt3__16vectorItNS_9allocatorItEEEE, __ZTSNSt3__16vectorIxNS_9allocatorIxEEEE, 
                        __ZTSNSt3__16vectorIyNS_9allocatorIyEEEE ]
  - archs:           [ x86_64, arm64, arm64e ]
    symbols:         [ __ZN4aura15make_error_codeENS_5ErrorE, __ZN4aura18ErrorType_categoryEv, 
                       __ZN4aura20FakeDeviceManagementD0Ev, __ZN4aura20FakeDeviceManagementD1Ev, 
                       __ZN4aura20FakeDeviceManagementD2Ev, __ZN4aura20make_error_conditionENS_5ErrorE, 
                       __ZN4aura22MakeResourceArbitratorEv, __ZN4aura6Object10AsIOStreamENSt3__18weak_ptrIS0_EE, 
                       __ZN4aura6Object13AsVirtualPortENSt3__18weak_ptrIS0_EE, __ZN4aura6Object14AsIOControllerENSt3__18weak_ptrIS0_EE, 
                       __ZN4aura6Object14AsLevelControlENSt3__18weak_ptrIS0_EE, __ZN4aura6Object15AsSliderControlENSt3__18weak_ptrIS0_EE, 
                       __ZN4aura6Object16AsBooleanControlENSt3__18weak_ptrIS0_EE, 
                       __ZN4aura6Object17AsSelectorControlENSt3__18weak_ptrIS0_EE, 
                       __ZN4aura6Object18AsStereoPanControlENSt3__18weak_ptrIS0_EE, 
                       __ZN4aura6Object5AsBoxENSt3__18weak_ptrIS0_EE, __ZN4aura6Object6AsPortENSt3__18weak_ptrIS0_EE, 
                       __ZN4aura6Object7AsClockENSt3__18weak_ptrIS0_EE, __ZN4aura6Object8AsDeviceENSt3__18weak_ptrIS0_EE, 
                       __ZN4aura6Object8AsDriverENSt3__18weak_ptrIS0_EE, __ZN4aura6Object8AsStreamENSt3__18weak_ptrIS0_EE, 
                       __ZN4aura6Object9AsControlENSt3__18weak_ptrIS0_EE, __ZN4auraeqERKNS_15ObjectReferenceES2_, 
                       __ZNK4aura9ErrorImpl4nameEv, __ZNK4aura9ErrorImpl7messageEi, 
                       __ZTIN4aura20FakeDeviceManagementE, __ZTIN4aura9ErrorImplE, 
                       __ZTSN4aura20FakeDeviceManagementE, __ZTSN4aura9ErrorImplE, 
                       __ZTVN4aura20FakeDeviceManagementE, __ZTVN4aura9ErrorImplE, 
                       _dspd_DSPDelegateFactory ]
    objc-classes:    [ _AuRA_Address, _AuRA_AggregateDevice, _AuRA_AggregateSubdevice, 
                       _AuRA_AutomaticConfigurationChangeRequest, _AuRA_BoxAcquisitionPreferences, 
                       _AuRA_ChangedObject, _AuRA_ClientProcessDescription, _AuRA_ConfigurationChangeDescription, 
                       _AuRA_ConfigurationChangeRecord, _AuRA_ConfigurationChangeRequest, 
                       _AuRA_ConfigurationHints, _AuRA_DeactivationConfigurationChangeRequest, 
                       _AuRA_DeviceHints, _AuRA_DoubleRange, _AuRA_IOControllerHints, 
                       _AuRA_IOStreamHints, _AuRA_IOTopology, _AuRA_IOTopologyChannelMapping, 
                       _AuRA_IOTopologyDescription, _AuRA_IOTopologyIOStream, _AuRA_IOTopologyIOStreamMapping, 
                       _AuRA_InitiationTriggerSpecification, _AuRA_ManualConfigurationChangeRequest, 
                       _AuRA_ObjectReference, _AuRA_PortRecord, _AuRA_ResourceArbitratorFactory, 
                       _AuRA_SimulatedConfigurationChangeDescription, _AuRA_SimulatedConfigurationChangeIOController, 
                       _AuRA_SimulatedIOController, _AuRA_SimulatedIOStream, _AuRA_StreamHints, 
                       _AuRA_SupportedFormat, _AuRA_TurnByTurnPortPreferences, _AuRA_VirtualPortHints, 
                       _aura_AggregateDevice, _aura_AggregateSubdevice, _aura_AutomaticConfigurationChangeRequest, 
                       _aura_ChangedObject, _aura_ConfigurationChangeDescription, 
                       _aura_ConfigurationChangeRecord, _aura_ConfigurationChangeRequest, 
                       _aura_ConfigurationHints, _aura_DeactivationConfigurationChangeRequest, 
                       _aura_DeviceHints, _aura_IOControllerHints, _aura_IOStreamHints, 
                       _aura_IOTopology, _aura_IOTopologyIOStream, _aura_IOTopologyIOStreamMapping, 
                       _aura_ManualConfigurationChangeRequest, _aura_SimulatedConfigurationChangeDescription, 
                       _aura_SimulatedIOController, _aura_SimulatedIOStream, _aura_StreamHints, 
                       _aura_VirtualPortHints ]
...
